; Function Attrs: mustprogress uwtable
define dso_local noundef zeroext i1 @_ZNK6spdlog7details10backtracer5emptyEv(ptr noundef nonnull align 8 dereferenceable(104) %0) local_unnamed_addr #6 align 2 personality ptr @__gxx_personality_v0 {
  %2 = tail call noundef i32 @pthread_mutex_lock(ptr noundef nonnull align 8 dereferenceable(40) %0) #37
  %.not.i.i = icmp eq i32 %2, 0
  br i1 %.not.i.i, label %_ZNSt10lock_guardISt5mutexEC2ERS0_.exit, label %3

3:                                                ; preds = %1
  tail call void @_ZSt20__throw_system_errori(i32 noundef %2) #43
  unreachable

_ZNSt10lock_guardISt5mutexEC2ERS0_.exit:          ; preds = %1
  %4 = getelementptr inbounds nuw i8, ptr %0, i64 64
  %5 = load i64, ptr %4, align 8, !tbaa !40
  %6 = getelementptr inbounds nuw i8, ptr %0, i64 56
  %7 = load i64, ptr %6, align 8, !tbaa !39
  %8 = icmp eq i64 %5, %7
  %9 = tail call noundef i32 @pthread_mutex_unlock(ptr noundef nonnull align 8 dereferenceable(40) %0) #37
  ret i1 %8
}